; Function Attrs: nounwind uwtable
define range(i32 -2, 1) i32 @KINSetMaxBetaFails(ptr noundef %0, i64 noundef %1) local_unnamed_addr #0 {
  %3 = icmp eq ptr %0, null
  br i1 %3, label %4, label %5

4:                                                ; preds = %2
  tail call void (ptr, i32, i32, ptr, ptr, ptr, ...) @KINProcessError(ptr noundef null, i32 noundef -1, i32 noundef 675, ptr noundef nonnull @__func__.KINSetMaxBetaFails, ptr noundef nonnull @.str, ptr noundef nonnull @.str.1) #9
  br label %13

5:                                                ; preds = %2
  %6 = icmp slt i64 %1, 0
  br i1 %6, label %7, label %8

7:                                                ; preds = %5
  tail call void (ptr, i32, i32, ptr, ptr, ptr, ...) @KINProcessError(ptr noundef nonnull %0, i32 noundef -2, i32 noundef 683, ptr noundef nonnull @__func__.KINSetMaxBetaFails, ptr noundef nonnull @.str, ptr noundef nonnull @.str.15) #9
  br label %13

8:                                                ; preds = %5
  %9 = icmp eq i64 %1, 0
  %10 = getelementptr inbounds nuw i8, ptr %0, i64 80
  br i1 %9, label %11, label %12

11:                                               ; preds = %8
  store i64 10, ptr %10, align 8, !tbaa !39
  br label %13

12:                                               ; preds = %8
  store i64 %1, ptr %10, align 8, !tbaa !39
  br label %13

13:                                               ; preds = %11, %12, %7, %4
  %.0 = phi i32 [ -1, %4 ], [ -2, %7 ], [ 0, %12 ], [ 0, %11 ]
  ret i32 %.0
}